target datalayout = "e-m:e-p270:32:32-p271:32:32-p272:64:64-i64:64-i128:128-f80:128-n8:16:32:64-S128"
target triple = "x86_64-pc-linux-gnu"

%struct.H5I_class_t = type { i32, i32, i32, ptr }

@H5_libinit_g = external global i8, align 1
@H5_libterm_g = external global i8, align 1
@.str = private unnamed_addr constant [97 x i8] c"generated/home/dtcxzyw/WorkSpace/Projects/compilers/llvm-opt-benchmark/bench/hdf5/hdf5/src/H5I.c\00", align 1
@__func__.H5Iregister_type = private unnamed_addr constant [17 x i8] c"H5Iregister_type\00", align 1
@H5E_FUNC_g = external global i64, align 8
@H5E_CANTINIT_g = external global i64, align 8
@.str.1 = private unnamed_addr constant [30 x i8] c"library initialization failed\00", align 1
@H5E_CANTSET_g = external global i64, align 8
@.str.2 = private unnamed_addr constant [22 x i8] c"can't set API context\00", align 1
@H5I_next_type_g = external global i32, align 4
@H5I_type_info_array_g = external global [127 x ptr], align 16
@H5E_ID_g = external global i64, align 8
@H5E_NOSPACE_g = external global i64, align 8
@.str.3 = private unnamed_addr constant [36 x i8] c"Maximum number of ID types exceeded\00", align 1
@H5E_CANTALLOC_g = external global i64, align 8
@.str.4 = private unnamed_addr constant [27 x i8] c"ID class allocation failed\00", align 1
@.str.5 = private unnamed_addr constant [26 x i8] c"can't initialize ID class\00", align 1

; Function Attrs: nounwind uwtable
define i32 @H5Iregister_type(i64 noundef %0, i32 noundef %1, ptr noundef %2) #0 {
  %4 = alloca i64, align 8
  %5 = alloca i32, align 4
  %6 = alloca ptr, align 8
  %7 = alloca ptr, align 8
  %8 = alloca i32, align 4
  %9 = alloca i32, align 4
  %10 = alloca i8, align 1
  %11 = alloca i8, align 1
  %12 = alloca i8, align 1
  %13 = alloca i32, align 4
  store i64 %0, ptr %4, align 8
  store i32 %1, ptr %5, align 4
  store ptr %2, ptr %6, align 8
  store ptr null, ptr %7, align 8
  store i32 -1, ptr %8, align 4
  store i32 -1, ptr %9, align 4
  store i8 0, ptr %10, align 1
  store i8 0, ptr %11, align 1
  %14 = load i8, ptr @H5_libinit_g, align 1
  %15 = trunc i8 %14 to i1
  br i1 %15, label %20, label %16

16:                                               ; preds = %3
  %17 = load i8, ptr @H5_libterm_g, align 1
  %18 = trunc i8 %17 to i1
  %19 = xor i1 %18, true
  br label %20

20:                                               ; preds = %16, %3
  %21 = phi i1 [ false, %3 ], [ %19, %16 ]
  %22 = xor i1 %21, true
  %23 = xor i1 %22, true
  %24 = zext i1 %23 to i32
  %25 = sext i32 %24 to i64
  %26 = icmp ne i64 %25, 0
  br i1 %26, label %27, label %51

27:                                               ; preds = %20
  %28 = call i32 @H5_init_library()
  %29 = icmp slt i32 %28, 0
  %30 = xor i1 %29, true
  %31 = xor i1 %30, true
  %32 = zext i1 %31 to i32
  %33 = sext i32 %32 to i64
  %34 = icmp ne i64 %33, 0
  br i1 %34, label %35, label %50

35:                                               ; preds = %27
  br label %36

36:                                               ; preds = %35
  br label %37

37:                                               ; preds = %36
  br label %38

38:                                               ; preds = %37
  %39 = load i64, ptr @H5E_FUNC_g, align 8
  %40 = load i64, ptr @H5E_CANTINIT_g, align 8
  %41 = call i32 (ptr, ptr, i32, i64, i64, ptr, ...) @H5E_printf_stack(ptr noundef @.str, ptr noundef @__func__.H5Iregister_type, i32 noundef 99, i64 noundef %39, i64 noundef %40, ptr noundef @.str.1)
  br label %42

42:                                               ; preds = %38
  store i8 1, ptr %11, align 1
  %43 = load i8, ptr %11, align 1
  %44 = trunc i8 %43 to i1
  %45 = zext i1 %44 to i8
  store i8 %45, ptr %11, align 1
  br label %46

46:                                               ; preds = %42
  br label %47

47:                                               ; preds = %46
  store i32 -1, ptr %9, align 4
  br label %179

48:                                               ; No predecessors!
  br label %49

49:                                               ; preds = %48
  br label %50

50:                                               ; preds = %49, %27
  br label %51

51:                                               ; preds = %50, %20
  %52 = call i32 @H5CX_push()
  %53 = icmp slt i32 %52, 0
  %54 = xor i1 %53, true
  %55 = xor i1 %54, true
  %56 = zext i1 %55 to i32
  %57 = sext i32 %56 to i64
  %58 = icmp ne i64 %57, 0
  br i1 %58, label %59, label %74

59:                                               ; preds = %51
  br label %60

60:                                               ; preds = %59
  br label %61

61:                                               ; preds = %60
  br label %62

62:                                               ; preds = %61
  %63 = load i64, ptr @H5E_FUNC_g, align 8
  %64 = load i64, ptr @H5E_CANTSET_g, align 8
  %65 = call i32 (ptr, ptr, i32, i64, i64, ptr, ...) @H5E_printf_stack(ptr noundef @.str, ptr noundef @__func__.H5Iregister_type, i32 noundef 99, i64 noundef %63, i64 noundef %64, ptr noundef @.str.2)
  br label %66

66:                                               ; preds = %62
  store i8 1, ptr %11, align 1
  %67 = load i8, ptr %11, align 1
  %68 = trunc i8 %67 to i1
  %69 = zext i1 %68 to i8
  store i8 %69, ptr %11, align 1
  br label %70

70:                                               ; preds = %66
  br label %71

71:                                               ; preds = %70
  store i32 -1, ptr %9, align 4
  br label %179

72:                                               ; No predecessors!
  br label %73

73:                                               ; preds = %72
  br label %75

74:                                               ; preds = %51
  store i8 1, ptr %10, align 1
  br label %75

75:                                               ; preds = %74, %73
  %76 = call i32 @H5E_clear_stack()
  %77 = load i32, ptr @H5I_next_type_g, align 4
  %78 = sext i32 %77 to i64
  %79 = icmp slt i64 %78, 127
  br i1 %79, label %80, label %84

80:                                               ; preds = %75
  %81 = load i32, ptr @H5I_next_type_g, align 4
  store i32 %81, ptr %8, align 4
  %82 = load i32, ptr @H5I_next_type_g, align 4
  %83 = add nsw i32 %82, 1
  store i32 %83, ptr @H5I_next_type_g, align 4
  br label %129

84:                                               ; preds = %75
  store i8 0, ptr %12, align 1
  store i32 17, ptr %13, align 4
  br label %85

85:                                               ; preds = %105, %84
  %86 = load i32, ptr %13, align 4
  %87 = sext i32 %86 to i64
  %88 = icmp slt i64 %87, 127
  br i1 %88, label %89, label %94

89:                                               ; preds = %85
  %90 = load i8, ptr %12, align 1
  %91 = trunc i8 %90 to i1
  %92 = zext i1 %91 to i32
  %93 = icmp eq i32 %92, 0
  br label %94

94:                                               ; preds = %89, %85
  %95 = phi i1 [ false, %85 ], [ %93, %89 ]
  br i1 %95, label %96, label %108

96:                                               ; preds = %94
  %97 = load i32, ptr %13, align 4
  %98 = sext i32 %97 to i64
  %99 = getelementptr inbounds [127 x ptr], ptr @H5I_type_info_array_g, i64 0, i64 %98
  %100 = load ptr, ptr %99, align 8
  %101 = icmp eq ptr null, %100
  br i1 %101, label %102, label %104

102:                                              ; preds = %96
  %103 = load i32, ptr %13, align 4
  store i32 %103, ptr %8, align 4
  store i8 1, ptr %12, align 1
  br label %104

104:                                              ; preds = %102, %96
  br label %105

105:                                              ; preds = %104
  %106 = load i32, ptr %13, align 4
  %107 = add nsw i32 %106, 1
  store i32 %107, ptr %13, align 4
  br label %85

108:                                              ; preds = %94
  %109 = load i8, ptr %12, align 1
  %110 = trunc i8 %109 to i1
  %111 = zext i1 %110 to i32
  %112 = icmp eq i32 %111, 0
  br i1 %112, label %113, label %128

113:                                              ; preds = %108
  br label %114

114:                                              ; preds = %113
  br label %115

115:                                              ; preds = %114
  br label %116

116:                                              ; preds = %115
  %117 = load i64, ptr @H5E_ID_g, align 8
  %118 = load i64, ptr @H5E_NOSPACE_g, align 8
  %119 = call i32 (ptr, ptr, i32, i64, i64, ptr, ...) @H5E_printf_stack(ptr noundef @.str, ptr noundef @__func__.H5Iregister_type, i32 noundef 124, i64 noundef %117, i64 noundef %118, ptr noundef @.str.3)
  br label %120

120:                                              ; preds = %116
  store i8 1, ptr %11, align 1
  %121 = load i8, ptr %11, align 1
  %122 = trunc i8 %121 to i1
  %123 = zext i1 %122 to i8
  store i8 %123, ptr %11, align 1
  br label %124

124:                                              ; preds = %120
  br label %125

125:                                              ; preds = %124
  store i32 -1, ptr %9, align 4
  br label %179

126:                                              ; No predecessors!
  br label %127

127:                                              ; preds = %126
  br label %128

128:                                              ; preds = %127, %108
  br label %129

129:                                              ; preds = %128, %80
  %130 = call noalias ptr @calloc(i64 noundef 1, i64 noundef 24) #3
  store ptr %130, ptr %7, align 8
  %131 = icmp eq ptr null, %130
  br i1 %131, label %132, label %147

132:                                              ; preds = %129
  br label %133

133:                                              ; preds = %132
  br label %134

134:                                              ; preds = %133
  br label %135

135:                                              ; preds = %134
  %136 = load i64, ptr @H5E_ID_g, align 8
  %137 = load i64, ptr @H5E_CANTALLOC_g, align 8
  %138 = call i32 (ptr, ptr, i32, i64, i64, ptr, ...) @H5E_printf_stack(ptr noundef @.str, ptr noundef @__func__.H5Iregister_type, i32 noundef 129, i64 noundef %136, i64 noundef %137, ptr noundef @.str.4)
  br label %139

139:                                              ; preds = %135
  store i8 1, ptr %11, align 1
  %140 = load i8, ptr %11, align 1
  %141 = trunc i8 %140 to i1
  %142 = zext i1 %141 to i8
  store i8 %142, ptr %11, align 1
  br label %143

143:                                              ; preds = %139
  br label %144

144:                                              ; preds = %143
  store i32 -1, ptr %9, align 4
  br label %179

145:                                              ; No predecessors!
  br label %146

146:                                              ; preds = %145
  br label %147

147:                                              ; preds = %146, %129
  %148 = load i32, ptr %8, align 4
  %149 = load ptr, ptr %7, align 8
  %150 = getelementptr inbounds %struct.H5I_class_t, ptr %149, i32 0, i32 0
  store i32 %148, ptr %150, align 8
  %151 = load ptr, ptr %7, align 8
  %152 = getelementptr inbounds %struct.H5I_class_t, ptr %151, i32 0, i32 1
  store i32 1, ptr %152, align 4
  %153 = load i32, ptr %5, align 4
  %154 = load ptr, ptr %7, align 8
  %155 = getelementptr inbounds %struct.H5I_class_t, ptr %154, i32 0, i32 2
  store i32 %153, ptr %155, align 8
  %156 = load ptr, ptr %6, align 8
  %157 = load ptr, ptr %7, align 8
  %158 = getelementptr inbounds %struct.H5I_class_t, ptr %157, i32 0, i32 3
  store ptr %156, ptr %158, align 8
  %159 = load ptr, ptr %7, align 8
  %160 = call i32 @H5I_register_type(ptr noundef %159)
  %161 = icmp slt i32 %160, 0
  br i1 %161, label %162, label %177

162:                                              ; preds = %147
  br label %163

163:                                              ; preds = %162
  br label %164

164:                                              ; preds = %163
  br label %165

165:                                              ; preds = %164
  %166 = load i64, ptr @H5E_ID_g, align 8
  %167 = load i64, ptr @H5E_CANTINIT_g, align 8
  %168 = call i32 (ptr, ptr, i32, i64, i64, ptr, ...) @H5E_printf_stack(ptr noundef @.str, ptr noundef @__func__.H5Iregister_type, i32 noundef 139, i64 noundef %166, i64 noundef %167, ptr noundef @.str.5)
  br label %169

169:                                              ; preds = %165
  store i8 1, ptr %11, align 1
  %170 = load i8, ptr %11, align 1
  %171 = trunc i8 %170 to i1
  %172 = zext i1 %171 to i8
  store i8 %172, ptr %11, align 1
  br label %173

173:                                              ; preds = %169
  br label %174

174:                                              ; preds = %173
  store i32 -1, ptr %9, align 4
  br label %179

175:                                              ; No predecessors!
  br label %176

176:                                              ; preds = %175
  br label %177

177:                                              ; preds = %176, %147
  %178 = load i32, ptr %8, align 4
  store i32 %178, ptr %9, align 4
  br label %179

179:                                              ; preds = %177, %174, %144, %125, %71, %47
  %180 = load i32, ptr %9, align 4
  %181 = icmp slt i32 %180, 0
  br i1 %181, label %182, label %189

182:                                              ; preds = %179
  %183 = load ptr, ptr %7, align 8
  %184 = icmp ne ptr %183, null
  br i1 %184, label %185, label %188

185:                                              ; preds = %182
  %186 = load ptr, ptr %7, align 8
  %187 = call ptr @H5MM_xfree(ptr noundef %186)
  store ptr %187, ptr %7, align 8
  br label %188

188:                                              ; preds = %185, %182
  br label %189

189:                                              ; preds = %188, %179
  %190 = load i8, ptr %10, align 1
  %191 = trunc i8 %190 to i1
  %192 = xor i1 %191, true
  %193 = xor i1 %192, true
  %194 = zext i1 %193 to i32
  %195 = sext i32 %194 to i64
  %196 = icmp ne i64 %195, 0
  br i1 %196, label %197, label %199

197:                                              ; preds = %189
  %198 = call i32 @H5CX_pop(i1 noundef zeroext true)
  store i8 0, ptr %10, align 1
  br label %199

199:                                              ; preds = %197, %189
  %200 = load i8, ptr %11, align 1
  %201 = trunc i8 %200 to i1
  %202 = xor i1 %201, true
  %203 = xor i1 %202, true
  %204 = zext i1 %203 to i32
  %205 = sext i32 %204 to i64
  %206 = icmp ne i64 %205, 0
  br i1 %206, label %207, label %209

207:                                              ; preds = %199
  %208 = call i32 @H5E_dump_api_stack()
  br label %209

209:                                              ; preds = %207, %199
  %210 = load i32, ptr %9, align 4
  ret i32 %210
}